; Function Attrs: mustprogress uwtable
define internal void @_ZN12_GLOBAL__N_114SynthGowinPass11clear_flagsEv(ptr noundef nonnull align 8 dereferenceable(322) %0) unnamed_addr #5 align 2 {
  %2 = getelementptr inbounds nuw i8, ptr %0, i64 280
  %3 = getelementptr inbounds nuw i8, ptr %0, i64 288
  %4 = load i64, ptr %3, align 8, !tbaa !16
  %5 = tail call noundef nonnull align 8 dereferenceable(32) ptr @_ZNSt7__cxx1112basic_stringIcSt11char_traitsIcESaIcEE10_M_replaceEmmPKcm(ptr noundef nonnull align 8 dereferenceable(32) %2, i64 noundef 0, i64 noundef %4, ptr noundef nonnull @.str.46, i64 noundef 4)
  %6 = getelementptr inbounds nuw i8, ptr %0, i64 184
  %7 = getelementptr inbounds nuw i8, ptr %0, i64 192
  %8 = load i64, ptr %7, align 8, !tbaa !16
  %9 = tail call noundef nonnull align 8 dereferenceable(32) ptr @_ZNSt7__cxx1112basic_stringIcSt11char_traitsIcESaIcEE10_M_replaceEmmPKcm(ptr noundef nonnull align 8 dereferenceable(32) %6, i64 noundef 0, i64 noundef %8, ptr noundef nonnull @.str.47, i64 noundef 9)
  %10 = getelementptr inbounds nuw i8, ptr %0, i64 216
  %11 = getelementptr inbounds nuw i8, ptr %0, i64 224
  %12 = load i64, ptr %11, align 8, !tbaa !16
  %13 = tail call noundef nonnull align 8 dereferenceable(32) ptr @_ZNSt7__cxx1112basic_stringIcSt11char_traitsIcESaIcEE10_M_replaceEmmPKcm(ptr noundef nonnull align 8 dereferenceable(32) %10, i64 noundef 0, i64 noundef %12, ptr noundef nonnull @.str.48, i64 noundef 0)
  %14 = getelementptr inbounds nuw i8, ptr %0, i64 248
  %15 = getelementptr inbounds nuw i8, ptr %0, i64 256
  %16 = load i64, ptr %15, align 8, !tbaa !16
  %17 = tail call noundef nonnull align 8 dereferenceable(32) ptr @_ZNSt7__cxx1112basic_stringIcSt11char_traitsIcESaIcEE10_M_replaceEmmPKcm(ptr noundef nonnull align 8 dereferenceable(32) %14, i64 noundef 0, i64 noundef %16, ptr noundef nonnull @.str.48, i64 noundef 0)
  %18 = getelementptr inbounds nuw i8, ptr %0, i64 312
  store i8 0, ptr %18, align 8, !tbaa !20
  %19 = getelementptr inbounds nuw i8, ptr %0, i64 315
  store i8 1, ptr %19, align 1, !tbaa !28
  %20 = getelementptr inbounds nuw i8, ptr %0, i64 313
  store i8 0, ptr %20, align 1, !tbaa !29
  %21 = getelementptr inbounds nuw i8, ptr %0, i64 316
  store i8 0, ptr %21, align 4, !tbaa !30
  %22 = getelementptr inbounds nuw i8, ptr %0, i64 314
  store i8 0, ptr %22, align 2, !tbaa !31
  %23 = getelementptr inbounds nuw i8, ptr %0, i64 317
  store i8 0, ptr %23, align 1, !tbaa !32
  %24 = getelementptr inbounds nuw i8, ptr %0, i64 318
  store i8 1, ptr %24, align 2, !tbaa !33
  %25 = getelementptr inbounds nuw i8, ptr %0, i64 319
  store i8 0, ptr %25, align 1, !tbaa !34
  %26 = getelementptr inbounds nuw i8, ptr %0, i64 320
  store i8 0, ptr %26, align 8, !tbaa !35
  %27 = getelementptr inbounds nuw i8, ptr %0, i64 321
  store i8 0, ptr %27, align 1, !tbaa !36
  ret void
}